target datalayout = "e-m:e-p270:32:32-p271:32:32-p272:64:64-i64:64-i128:128-f80:128-n8:16:32:64-S128"
target triple = "x86_64-pc-linux-gnu"

; Function Attrs: nounwind sspstrong uwtable
define internal ptr @zlib_mem_alloc(ptr noundef %0, i32 noundef %1, i32 noundef %2) #0 {
  %4 = alloca ptr, align 8
  %5 = alloca i32, align 4
  %6 = alloca i32, align 4
  %7 = alloca ptr, align 8
  %8 = alloca [6 x i64], align 16
  %9 = alloca i64, align 8
  %10 = alloca i64, align 8
  store ptr %0, ptr %4, align 8, !tbaa !77
  store i32 %1, ptr %5, align 4, !tbaa !10
  store i32 %2, ptr %6, align 4, !tbaa !10
  call void @llvm.lifetime.start.p0(i64 8, ptr %7) #23
  %11 = load i32, ptr %5, align 4, !tbaa !10
  %12 = zext i32 %11 to i64
  %13 = load i32, ptr %6, align 4, !tbaa !10
  %14 = zext i32 %13 to i64
  %15 = call noalias nonnull ptr @ruby_xmalloc2(i64 noundef %12, i64 noundef %14) #29
  store ptr %15, ptr %7, align 8, !tbaa !77
  call void @llvm.lifetime.start.p0(i64 48, ptr %8) #23
  call void @llvm.lifetime.start.p0(i64 8, ptr %9) #23
  %16 = getelementptr inbounds [6 x i64], ptr %8, i64 0, i64 0
  store volatile i64 1296236546, ptr %16, align 16, !tbaa !6
  %17 = load ptr, ptr %7, align 8, !tbaa !77
  %18 = ptrtoint ptr %17 to i64
  %19 = getelementptr inbounds [6 x i64], ptr %8, i64 0, i64 1
  store volatile i64 %18, ptr %19, align 8, !tbaa !6
  %20 = load i32, ptr %5, align 4, !tbaa !10
  %21 = load i32, ptr %6, align 4, !tbaa !10
  %22 = mul i32 %20, %21
  %23 = zext i32 %22 to i64
  %24 = getelementptr inbounds [6 x i64], ptr %8, i64 0, i64 2
  store volatile i64 %23, ptr %24, align 16, !tbaa !6
  %25 = getelementptr inbounds [6 x i64], ptr %8, i64 0, i64 3
  store volatile i64 0, ptr %25, align 8, !tbaa !6
  %26 = getelementptr inbounds [6 x i64], ptr %8, i64 0, i64 4
  store volatile i64 0, ptr %26, align 16, !tbaa !6
  %27 = getelementptr inbounds [6 x i64], ptr %8, i64 0, i64 5
  store volatile i64 0, ptr %27, align 8, !tbaa !6
  %28 = getelementptr inbounds [6 x i64], ptr %8, i64 0, i64 0
  %29 = call i64 asm sideeffect "rolq $$3,  %rdi ; rolq $$13, %rdi\0A\09rolq $$61, %rdi ; rolq $$51, %rdi\0A\09xchgq %rbx,%rbx", "={dx},{ax},0,~{cc},~{memory},~{dirflag},~{fpsr},~{flags}"(ptr %28, i64 0) #23, !srcloc !117
  store volatile i64 %29, ptr %9, align 8, !tbaa !6
  %30 = load volatile i64, ptr %9, align 8, !tbaa !6
  store i64 %30, ptr %10, align 8, !tbaa !6
  call void @llvm.lifetime.end.p0(i64 8, ptr %9) #23
  call void @llvm.lifetime.end.p0(i64 48, ptr %8) #23
  %31 = load ptr, ptr %7, align 8, !tbaa !77
  call void @llvm.lifetime.end.p0(i64 8, ptr %7) #23
  ret ptr %31
}