; Function Attrs: nounwind sspstrong uwtable
define internal nonnull ptr @zlib_mem_alloc(ptr readnone captures(none) %0, i32 noundef %1, i32 noundef %2) #0 {
  %4 = alloca [6 x i64], align 16
  %5 = alloca i64, align 8
  %6 = zext i32 %1 to i64
  %7 = zext i32 %2 to i64
  %8 = tail call noalias nonnull ptr @ruby_xmalloc2(i64 noundef %6, i64 noundef %7) #23
  call void @llvm.lifetime.start.p0(i64 48, ptr nonnull %4) #18
  call void @llvm.lifetime.start.p0(i64 8, ptr nonnull %5)
  store volatile i64 1296236546, ptr %4, align 16, !tbaa !6
  %9 = ptrtoint ptr %8 to i64
  %10 = getelementptr inbounds nuw i8, ptr %4, i64 8
  store volatile i64 %9, ptr %10, align 8, !tbaa !6
  %11 = mul i32 %2, %1
  %12 = zext i32 %11 to i64
  %13 = getelementptr inbounds nuw i8, ptr %4, i64 16
  store volatile i64 %12, ptr %13, align 16, !tbaa !6
  %14 = getelementptr inbounds nuw i8, ptr %4, i64 24
  store volatile i64 0, ptr %14, align 8, !tbaa !6
  %15 = getelementptr inbounds nuw i8, ptr %4, i64 32
  store volatile i64 0, ptr %15, align 16, !tbaa !6
  %16 = getelementptr inbounds nuw i8, ptr %4, i64 40
  store volatile i64 0, ptr %16, align 8, !tbaa !6
  %17 = call i64 asm sideeffect "rolq $$3,  %rdi ; rolq $$13, %rdi\0A\09rolq $$61, %rdi ; rolq $$51, %rdi\0A\09xchgq %rbx,%rbx", "={dx},{ax},0,~{cc},~{memory},~{dirflag},~{fpsr},~{flags}"(ptr nonnull %4, i64 0) #18, !srcloc !226
  store volatile i64 %17, ptr %5, align 8, !tbaa !6
  %.0..0..0..0. = load volatile i64, ptr %5, align 8, !tbaa !6
  call void @llvm.lifetime.end.p0(i64 8, ptr nonnull %5)
  call void @llvm.lifetime.end.p0(i64 48, ptr nonnull %4) #18
  ret ptr %8
}